; Function Attrs: nounwind uwtable
define internal fastcc noundef zeroext i1 @check_db_file_conflict(i32 noundef %0) unnamed_addr #0 {
  %2 = alloca %struct.stat, align 8
  %3 = tail call ptr @table_open(i32 noundef 1213, i32 noundef 1) #16
  %4 = tail call ptr @table_beginscan_catalog(ptr noundef %3, i32 noundef 0, ptr noundef null) #16
  %5 = tail call ptr @heap_getnext(ptr noundef %4, i32 noundef 1) #16
  %.not16.not = icmp eq ptr %5, null
  br i1 %.not16.not, label %._crit_edge, label %.lr.ph

.lr.ph:                                           ; preds = %1, %.backedge
  %6 = phi ptr [ %18, %.backedge ], [ %5, %1 ]
  %7 = getelementptr i8, ptr %6, i64 16
  %.val = load ptr, ptr %7, align 8
  %8 = getelementptr inbounds nuw i8, ptr %.val, i64 22
  %9 = load i8, ptr %8, align 2
  %10 = zext i8 %9 to i64
  %11 = getelementptr inbounds nuw i8, ptr %.val, i64 %10
  %12 = load i32, ptr %11, align 4
  call void @llvm.lifetime.start.p0(i64 144, ptr nonnull %2) #16
  %13 = icmp eq i32 %12, 1664
  br i1 %13, label %19, label %14, !llvm.loop !12

14:                                               ; preds = %.lr.ph
  %15 = tail call ptr @GetDatabasePath(i32 noundef %0, i32 noundef %12) #16
  %16 = call i32 @lstat(ptr noundef %15, ptr noundef nonnull %2) #16
  %17 = icmp eq i32 %16, 0
  tail call void @pfree(ptr noundef %15) #16
  call void @llvm.lifetime.end.p0(i64 144, ptr nonnull %2) #16
  br i1 %17, label %._crit_edge, label %.backedge

.backedge:                                        ; preds = %14, %19
  %18 = tail call ptr @heap_getnext(ptr noundef %4, i32 noundef 1) #16
  %.not.not = icmp eq ptr %18, null
  br i1 %.not.not, label %._crit_edge, label %.lr.ph

19:                                               ; preds = %.lr.ph
  call void @llvm.lifetime.end.p0(i64 144, ptr nonnull %2) #16
  br label %.backedge

._crit_edge:                                      ; preds = %.backedge, %14, %1
  %.not.lcssa = phi i1 [ false, %1 ], [ false, %.backedge ], [ true, %14 ]
  %20 = load ptr, ptr %4, align 8
  %21 = getelementptr inbounds nuw i8, ptr %20, i64 320
  %22 = load ptr, ptr %21, align 8
  %23 = getelementptr inbounds nuw i8, ptr %22, i64 24
  %24 = load ptr, ptr %23, align 8
  tail call void %24(ptr noundef nonnull %4) #16
  tail call void @table_close(ptr noundef %3, i32 noundef 1) #16
  ret i1 %.not.lcssa
}